; Function Attrs: mustprogress uwtable
define void @_ZN7rocksdb18WriteBatchInternal11SetContentsEPNS_10WriteBatchERKNS_5SliceE(ptr noalias nocapture writeonly sret(%"class.rocksdb::Status") align 8 %agg.result, ptr noundef %b, ptr nocapture noundef nonnull readonly align 8 dereferenceable(16) %contents) local_unnamed_addr #2 align 2 personality ptr @__gxx_personality_v0 {
entry:
  %rep_ = getelementptr inbounds i8, ptr %b, i64 64
  %0 = load ptr, ptr %contents, align 8
  %size_.i = getelementptr inbounds i8, ptr %contents, i64 8
  %1 = load i64, ptr %size_.i, align 8
  %call2 = tail call noundef nonnull align 8 dereferenceable(32) ptr @_ZNSt7__cxx1112basic_stringIcSt11char_traitsIcESaIcEE6assignEPKcm(ptr noundef nonnull align 8 dereferenceable(32) %rep_, ptr noundef %0, i64 noundef %1)
  %content_flags_ = getelementptr inbounds i8, ptr %b, i64 36
  store atomic i32 1, ptr %content_flags_ monotonic, align 4
  %state_.i.i = getelementptr inbounds i8, ptr %agg.result, i64 8
  store ptr null, ptr %state_.i.i, align 8, !alias.scope !100
  tail call void @llvm.memset.p0.i64(ptr noundef nonnull align 8 dereferenceable(6) %agg.result, i8 0, i64 6, i1 false), !alias.scope !100
  ret void
}